(dp1
S'output'
p2
S'Unable to open included view file: /Users/William/SoftwareEngineering/opensource-mail-client/applications/nikomen/views/web2py_ajax.html'
p3
sS'layer'
p4
S'ParserContainer'
p5
sS'code'
p6
S'<!DOCTYPE html>\n<html>\n\n<style>\na:link {color:#CC0000}\na:hover {color:#990099}\n</style>\n\n<head>\n    <title>Nikomen Home</title>\n\t\n\t{{response.files.append(URL(\'static\',\'design.css\'))}}\n    \t{{include \'web2py_ajax.html\'}}\n\t\t<link rel="stylesheet" href="http://maxcdn.bootstrapcdn.com/bootstrap/3.2.0/css/bootstrap.min.css">\n\n\t<link rel="stylesheet" type="text/css" href="design.css">\n</head>\n<body>\n        <div id=\'LogoSpan\'>\n            <img src="Images/nikomen_logosmall.jpg" alt="A Greek Lord Running to Deliver Your Message" style="width:100%;height:175px">\n        </div>\n\t\n        <div class=\'TextSpan\'>\n\t\t\t<div id=\'TextBox\'>\n            <div id=\'InfoBox\'>\n            \n                <!--Insert the company bio here -->\n\t\t\t\t<h1>Who are we?</h1>\n\t\t\t\t\n\t\t\t\t<p>\t\tNe alii theophrastus definitionem sea, utamur persius quo ad. Ad ius nibh latine civibus, pro ne saperet constituto conclusionemque. Causae deserunt vis ad. Cum an sonet platonem. Ne vix sint labore assueverit, pri alterum nominavi deterruisset ut, sed melius dolorum ullamcorper ut. Viderer adipiscing ne sit.</p>\n\t\t\t\t<p>\n\n\t\t\t\t\tLucilius salutatus te sit, sit no quot soleat accusata, usu at labitur eruditi salutatus. Elitr molestie urbanitas ex duo, sit sumo disputando interpretaris eu. Ad vim detracto splendide. At sumo etiam appellantur sea. Ne vim essent civibus vulputate, sed dissentias scripserit cu. Reque perfecto erroribus id eum, eu justo noluisse definiebas ius.\n\t\t\t\t</p>\n\t\t\t\t\t<p>Elitr molestie urbanitas ex duo, sit sumo disputando interpretaris eu. Ad vim detracto splendide. At sumo etiam appellantur sea. Ne vim essent civibus vulputate, sed dissentias scripserit cu. Reque perfecto erroribus id eum, eu justo noluisse definiebas ius.\n           </p>\n\t\t\t\t</div>\n\t\t\t\t\n\t\t\t\t\n            </div>\n            <div id=\'SideBox\'>\t\n\t\t\t\t<div id=\'CreateBox\'>\n\t\t\t\t\t<h3>New User?</h3>\n\t\t\t\t\n\t\t\t\t\t<p>Nikomen is a free open source mail client. We currently only serve gmail accounts. </p>\n\t\t\t\t\t\n\t\t\t\t\t<!--Go to create_functino here -->\n\t\t\t\t\t<form action="create.html">\n\t\t\t\t\t\t<br>\n\t\t\t\t\t\t<input type="image" src="Images/signup1.png" id="signUp">\n\t\t\t\t\t</form>\n\t\t\t\t</div>\n\t\t\t\t\t\t\n\t\t\t\t\t\n\t\t\t\t<div id=\'LoginBox\'>\n\t\t\t\t\t\n\t\t\t\t\t<hr>\n\t\t\t\t\t<br>\n\t\t\t\t\t<form action="login_function">  <!--Create login-handling logic function -->\n\t\t\n\t\t\t\t\t\n\t\t\t\t\t<p>\n\t\t\t\t\t\t<label>Username:\n\t\t\t\t\t\t<input type="text" name="username" style="float:right; margin-right: 5%">\n\t\t\t\t\t\t</label>\n\t\t\t\t\t\n\t\t\t\t\t\t<label>Password:\n\t\t\t\t\t\t<input type="password" name="password" style="float:right; margin-right: 5%">\n\t\t\t\t\t\t</label>\n\t\t\t\t\t</p>\n\n\t\t\t\t\t<div style="width:100px; float: right; margin-right: 5%;">\n\t\t\t\t\t<input type="submit" value="Login" style="width:55px"> \n\t\t\t\t\t<a \thref="forgot_login.html">Forgot Password? </a>\n\t\t\t\t\t\t</div>\t\n\t\t\t\t\t</form>\n\t\t\t\t\t\n\t\t\t\t\t\n\t\t\t\t</div>\n\t\t\t\t\n\t\t\t\t\n            </div>\n\t                \n        </div>\n        \n\n\n</body>\n\n\t\n</html>\n'
p7
sS'snapshot'
p8
(dp9
S'exception'
p10
(dp11
S'__getslice__'
p12
S"<method-wrapper '__getslice__' of exceptions.IOError object>"
p13
sS'__str__'
p14
S"<method-wrapper '__str__' of exceptions.IOError object>"
p15
sS'__reduce__'
p16
S'<built-in method __reduce__ of exceptions.IOError object>'
p17
sS'__dict__'
p18
S'{}'
p19
sS'__sizeof__'
p20
S'<built-in method __sizeof__ of exceptions.IOError object>'
p21
sS'__init__'
p22
S"<method-wrapper '__init__' of exceptions.IOError object>"
p23
sS'__setattr__'
p24
S"<method-wrapper '__setattr__' of exceptions.IOError object>"
p25
sS'__reduce_ex__'
p26
S'<built-in method __reduce_ex__ of exceptions.IOError object>'
p27
sS'__new__'
p28
S'<built-in method __new__ of type object>'
p29
sS'errno'
p30
S'2'
sS'__format__'
p31
S'<built-in method __format__ of exceptions.IOError object>'
p32
sS'__class__'
p33
S"<type 'exceptions.IOError'>"
p34
sS'filename'
p35
S"'/Users/William/SoftwareEngineering/opensource-ma...lient/applications/nikomen/views/web2py_ajax.html'"
p36
sS'__doc__'
p37
S"'I/O operation failed.'"
p38
sS'__getitem__'
p39
S"<method-wrapper '__getitem__' of exceptions.IOError object>"
p40
sS'__setstate__'
p41
S'<built-in method __setstate__ of exceptions.IOError object>'
p42
sS'__getattribute__'
p43
S"<method-wrapper '__getattribute__' of exceptions.IOError object>"
p44
sS'args'
p45
S"(2, 'No such file or directory')"
p46
sS'__subclasshook__'
p47
S'<built-in method __subclasshook__ of type object>'
p48
sS'__unicode__'
p49
S'<built-in method __unicode__ of exceptions.IOError object>'
p50
sS'strerror'
p51
S"'No such file or directory'"
p52
sS'__delattr__'
p53
S"<method-wrapper '__delattr__' of exceptions.IOError object>"
p54
sS'__repr__'
p55
S"<method-wrapper '__repr__' of exceptions.IOError object>"
p56
sS'__hash__'
p57
S"<method-wrapper '__hash__' of exceptions.IOError object>"
p58
ssS'evalue'
p59
S"[Errno 2] No such file or directory: '/Users/William/SoftwareEngineering/opensource-mail-client/applications/nikomen/views/web2py_ajax.html'"
p60
sS'frames'
p61
(lp62
(dp63
S'file'
p64
S'/Users/William/SoftwareEngineering/opensource-mail-client/gluon/template.py'
p65
sS'dump'
p66
(dp67
S'builtinopen'
p68
S'<built-in function open>'
p69
sS'fileobj'
p70
S'undefined'
p71
sS'filepath'
p72
S"'/Users/William/SoftwareEngineering/opensource-ma...lient/applications/nikomen/views/web2py_ajax.html'"
p73
ssS'lnum'
p74
I450
sS'lines'
p75
(dp76
I448
S'        # try to read the text.'
p77
sI449
S'        try:'
p78
sI450
S"            fileobj = open(filepath, 'rb')"
p79
sI451
S'            text = fileobj.read()'
p80
sI452
S'            fileobj.close()'
p81
sI453
S'        except IOError:'
p82
sI454
S"            self._raise_error('Unable to open included view file: ' + filepath)"
p83
sI445
S'        # Get the path of the file on the system.'
p84
sI446
S'        filepath = self.path and os.path.join(self.path, filename) or filename'
p85
sI447
S''
ssS'call'
p86
S"(self=<gluon.template.TemplateParser object>, filename='web2py_ajax.html')"
p87
sS'func'
p88
S'_get_file_text'
p89
sasS'pyver'
p90
S'Python 2.7.8: /Library/Frameworks/Python.framework/Versions/2.7/Resources/Python.app/Contents/MacOS/Python (prefix: /Library/Frameworks/Python.framework/Versions/2.7)'
p91
sS'etype'
p92
S"<type 'exceptions.IOError'>"
p93
sS'date'
p94
S'Mon Apr 27 23:41:17 2015'
p95
sS'locals'
p96
(dp97
S'self'
p98
S'<gluon.template.TemplateParser object>'
p99
sS'filepath'
p100
S"'/Users/William/SoftwareEngineering/opensource-ma...lient/applications/nikomen/views/web2py_ajax.html'"
p101
sS'context'
p102
S"{'A': <class 'gluon.html.A'>, 'ANY_OF': <class 'gluon.validators.ANY_OF'>, 'ASSIGNJS': <function ASSIGNJS>, 'B': <class 'gluon.html.B'>, 'BEAUTIFY': <class 'gluon.html.BEAUTIFY'>, 'BODY': <class 'gluon.html.BODY'>, 'BR': <class 'gluon.html.BR'>, 'BUTTON': <class 'gluon.html.BUTTON'>, 'CAT': <class 'gluon.html.CAT'>, 'CENTER': <class 'gluon.html.CENTER'>, ...}"
p103
sg35
S"'web2py_ajax.html'"
p104
sssS'traceback'
p105
S'Traceback (most recent call last):\n  File "/Users/William/SoftwareEngineering/opensource-mail-client/gluon/template.py", line 450, in _get_file_text\n    fileobj = open(filepath, \'rb\')\nIOError: [Errno 2] No such file or directory: \'/Users/William/SoftwareEngineering/opensource-mail-client/applications/nikomen/views/web2py_ajax.html\'\n'
p106
s.